; ModuleID = '11/894.c'
source_filename = "11/894.c"
target datalayout = "e-m:e-p270:32:32-p271:32:32-p272:64:64-i64:64-f80:128-n8:16:32:64-S128"
target triple = "x86_64-pc-linux-gnu"

@.str = private unnamed_addr constant [7 x i8] c"%d%d%d\00", align 1
@.str.1 = private unnamed_addr constant [3 x i8] c"%d\00", align 1

; Function Attrs: noinline nounwind uwtable
define dso_local i32 @main() #0 {
  %1 = alloca i32, align 4
  %2 = alloca i32, align 4
  %3 = alloca i32, align 4
  %4 = alloca i32, align 4
  %5 = alloca i32, align 4
  store i32 0, i32* %1, align 4
  %6 = call i32 (i8*, ...) @__isoc99_scanf(i8* getelementptr inbounds ([7 x i8], [7 x i8]* @.str, i64 0, i64 0), i32* %2, i32* %3, i32* %4)
  %7 = load i32, i32* %3, align 4
  %8 = icmp eq i32 %7, 1
  br i1 %8, label %9, label %11

9:                                                ; preds = %0
  %10 = load i32, i32* %4, align 4
  store i32 %10, i32* %5, align 4
  br label %84

11:                                               ; preds = %0
  %12 = load i32, i32* %3, align 4
  %13 = icmp eq i32 %12, 2
  br i1 %13, label %14, label %17

14:                                               ; preds = %11
  %15 = load i32, i32* %4, align 4
  %16 = add nsw i32 %15, 31
  store i32 %16, i32* %5, align 4
  br label %83

17:                                               ; preds = %11
  %18 = load i32, i32* %3, align 4
  %19 = icmp eq i32 %18, 3
  br i1 %19, label %20, label %23

20:                                               ; preds = %17
  %21 = load i32, i32* %4, align 4
  %22 = add nsw i32 %21, 59
  store i32 %22, i32* %5, align 4
  br label %82

23:                                               ; preds = %17
  %24 = load i32, i32* %3, align 4
  %25 = icmp eq i32 %24, 4
  br i1 %25, label %26, label %29

26:                                               ; preds = %23
  %27 = load i32, i32* %4, align 4
  %28 = add nsw i32 %27, 90
  store i32 %28, i32* %5, align 4
  br label %81

29:                                               ; preds = %23
  %30 = load i32, i32* %3, align 4
  %31 = icmp eq i32 %30, 5
  br i1 %31, label %32, label %35

32:                                               ; preds = %29
  %33 = load i32, i32* %4, align 4
  %34 = add nsw i32 %33, 120
  store i32 %34, i32* %5, align 4
  br label %80

35:                                               ; preds = %29
  %36 = load i32, i32* %3, align 4
  %37 = icmp eq i32 %36, 6
  br i1 %37, label %38, label %41

38:                                               ; preds = %35
  %39 = load i32, i32* %4, align 4
  %40 = add nsw i32 %39, 151
  store i32 %40, i32* %5, align 4
  br label %79

41:                                               ; preds = %35
  %42 = load i32, i32* %3, align 4
  %43 = icmp eq i32 %42, 7
  br i1 %43, label %44, label %47

44:                                               ; preds = %41
  %45 = load i32, i32* %4, align 4
  %46 = add nsw i32 %45, 181
  store i32 %46, i32* %5, align 4
  br label %78

47:                                               ; preds = %41
  %48 = load i32, i32* %3, align 4
  %49 = icmp eq i32 %48, 8
  br i1 %49, label %50, label %53

50:                                               ; preds = %47
  %51 = load i32, i32* %4, align 4
  %52 = add nsw i32 %51, 212
  store i32 %52, i32* %5, align 4
  br label %77

53:                                               ; preds = %47
  %54 = load i32, i32* %3, align 4
  %55 = icmp eq i32 %54, 9
  br i1 %55, label %56, label %59

56:                                               ; preds = %53
  %57 = load i32, i32* %4, align 4
  %58 = add nsw i32 %57, 243
  store i32 %58, i32* %5, align 4
  br label %76

59:                                               ; preds = %53
  %60 = load i32, i32* %3, align 4
  %61 = icmp eq i32 %60, 10
  br i1 %61, label %62, label %65

62:                                               ; preds = %59
  %63 = load i32, i32* %4, align 4
  %64 = add nsw i32 %63, 273
  store i32 %64, i32* %5, align 4
  br label %75

65:                                               ; preds = %59
  %66 = load i32, i32* %3, align 4
  %67 = icmp eq i32 %66, 11
  br i1 %67, label %68, label %71

68:                                               ; preds = %65
  %69 = load i32, i32* %4, align 4
  %70 = add nsw i32 %69, 304
  store i32 %70, i32* %5, align 4
  br label %74

71:                                               ; preds = %65
  %72 = load i32, i32* %4, align 4
  %73 = add nsw i32 %72, 334
  store i32 %73, i32* %5, align 4
  br label %74

74:                                               ; preds = %71, %68
  br label %75

75:                                               ; preds = %74, %62
  br label %76

76:                                               ; preds = %75, %56
  br label %77

77:                                               ; preds = %76, %50
  br label %78

78:                                               ; preds = %77, %44
  br label %79

79:                                               ; preds = %78, %38
  br label %80

80:                                               ; preds = %79, %32
  br label %81

81:                                               ; preds = %80, %26
  br label %82

82:                                               ; preds = %81, %20
  br label %83

83:                                               ; preds = %82, %14
  br label %84

84:                                               ; preds = %83, %9
  %85 = load i32, i32* %2, align 4
  %86 = srem i32 %85, 400
  %87 = icmp eq i32 %86, 0
  br i1 %87, label %99, label %88

88:                                               ; preds = %84
  %89 = load i32, i32* %2, align 4
  %90 = srem i32 %89, 100
  %91 = icmp ne i32 %90, 0
  br i1 %91, label %92, label %96

92:                                               ; preds = %88
  %93 = load i32, i32* %2, align 4
  %94 = srem i32 %93, 4
  %95 = icmp eq i32 %94, 0
  br i1 %95, label %99, label %96

96:                                               ; preds = %92, %88
  %97 = load i32, i32* %5, align 4
  %98 = call i32 (i8*, ...) @printf(i8* getelementptr inbounds ([3 x i8], [3 x i8]* @.str.1, i64 0, i64 0), i32 %97)
  br label %110

99:                                               ; preds = %92, %84
  %100 = load i32, i32* %3, align 4
  %101 = icmp slt i32 %100, 3
  br i1 %101, label %102, label %105

102:                                              ; preds = %99
  %103 = load i32, i32* %5, align 4
  %104 = call i32 (i8*, ...) @printf(i8* getelementptr inbounds ([3 x i8], [3 x i8]* @.str.1, i64 0, i64 0), i32 %103)
  br label %109

105:                                              ; preds = %99
  %106 = load i32, i32* %5, align 4
  %107 = add nsw i32 %106, 1
  %108 = call i32 (i8*, ...) @printf(i8* getelementptr inbounds ([3 x i8], [3 x i8]* @.str.1, i64 0, i64 0), i32 %107)
  br label %109

109:                                              ; preds = %105, %102
  br label %110

110:                                              ; preds = %109, %96
  ret i32 0
}

declare dso_local i32 @__isoc99_scanf(i8*, ...) #1

declare dso_local i32 @printf(i8*, ...) #1


!llvm.module.flags = !{!0}
!llvm.ident = !{!1}

!0 = !{i32 1, !"wchar_size", i32 4}
!1 = !{!"clang version 10.0.0-4ubuntu1 "}
